target datalayout = "e-m:e-p270:32:32-p271:32:32-p272:64:64-i64:64-i128:128-f80:128-n8:16:32:64-S128"
target triple = "x86_64-pc-linux-gnu"

%struct.PauliHamil = type { ptr, ptr, i32, i32 }

@__func__.createPauliHamil = private unnamed_addr constant [17 x i8] c"createPauliHamil\00", align 1
@.str.43 = private unnamed_addr constant [2 x i8] c"r\00", align 1
@__func__.createPauliHamilFromFile = private unnamed_addr constant [25 x i8] c"createPauliHamilFromFile\00", align 1
@.str.44 = private unnamed_addr constant [4 x i8] c"%lf\00", align 1
@.str.45 = private unnamed_addr constant [2 x i8] c" \00", align 1
@.str.46 = private unnamed_addr constant [4 x i8] c"%d \00", align 1

; Function Attrs: nounwind uwtable
define void @createPauliHamil(ptr dead_on_unwind noalias writable sret(%struct.PauliHamil) align 8 %0, i32 noundef %1, i32 noundef %2) #0 {
  %4 = alloca i32, align 4
  %5 = alloca i32, align 4
  %6 = alloca i32, align 4
  store i32 %1, ptr %4, align 4, !tbaa !4
  store i32 %2, ptr %5, align 4, !tbaa !4
  %7 = load i32, ptr %4, align 4, !tbaa !4
  %8 = load i32, ptr %5, align 4, !tbaa !4
  call void @validateHamilParams(i32 noundef %7, i32 noundef %8, ptr noundef @__func__.createPauliHamil)
  %9 = load i32, ptr %4, align 4, !tbaa !4
  %10 = getelementptr inbounds nuw %struct.PauliHamil, ptr %0, i32 0, i32 3
  store i32 %9, ptr %10, align 4, !tbaa !50
  %11 = load i32, ptr %5, align 4, !tbaa !4
  %12 = getelementptr inbounds nuw %struct.PauliHamil, ptr %0, i32 0, i32 2
  store i32 %11, ptr %12, align 8, !tbaa !38
  %13 = load i32, ptr %5, align 4, !tbaa !4
  %14 = sext i32 %13 to i64
  %15 = mul i64 %14, 8
  %16 = call noalias ptr @malloc(i64 noundef %15) #8
  %17 = getelementptr inbounds nuw %struct.PauliHamil, ptr %0, i32 0, i32 1
  store ptr %16, ptr %17, align 8, !tbaa !37
  %18 = load i32, ptr %4, align 4, !tbaa !4
  %19 = load i32, ptr %5, align 4, !tbaa !4
  %20 = mul nsw i32 %18, %19
  %21 = sext i32 %20 to i64
  %22 = mul i64 %21, 4
  %23 = call noalias ptr @malloc(i64 noundef %22) #8
  %24 = getelementptr inbounds nuw %struct.PauliHamil, ptr %0, i32 0, i32 0
  store ptr %23, ptr %24, align 8, !tbaa !35
  call void @llvm.lifetime.start.p0(i64 4, ptr %6) #7
  store i32 0, ptr %6, align 4, !tbaa !4
  br label %25

25:                                               ; preds = %38, %3
  %26 = load i32, ptr %6, align 4, !tbaa !4
  %27 = load i32, ptr %4, align 4, !tbaa !4
  %28 = load i32, ptr %5, align 4, !tbaa !4
  %29 = mul nsw i32 %27, %28
  %30 = icmp slt i32 %26, %29
  br i1 %30, label %32, label %31

31:                                               ; preds = %25
  call void @llvm.lifetime.end.p0(i64 4, ptr %6) #7
  br label %41

32:                                               ; preds = %25
  %33 = getelementptr inbounds nuw %struct.PauliHamil, ptr %0, i32 0, i32 0
  %34 = load ptr, ptr %33, align 8, !tbaa !35
  %35 = load i32, ptr %6, align 4, !tbaa !4
  %36 = sext i32 %35 to i64
  %37 = getelementptr inbounds i32, ptr %34, i64 %36
  store i32 0, ptr %37, align 4, !tbaa !4
  br label %38

38:                                               ; preds = %32
  %39 = load i32, ptr %6, align 4, !tbaa !4
  %40 = add nsw i32 %39, 1
  store i32 %40, ptr %6, align 4, !tbaa !4
  br label %25

41:                                               ; preds = %31
  ret void
}

; Function Attrs: nounwind uwtable
define void @createPauliHamilFromFile(ptr dead_on_unwind noalias writable sret(%struct.PauliHamil) align 8 %0, ptr noundef %1) #0 {
  %3 = alloca ptr, align 8
  %4 = alloca ptr, align 8
  %5 = alloca i32, align 4
  %6 = alloca i32, align 4
  %7 = alloca i8, align 1
  %8 = alloca i8, align 1
  %9 = alloca i32, align 4
  %10 = alloca [50 x i8], align 16
  %11 = alloca i32, align 4
  %12 = alloca i32, align 4
  %13 = alloca i32, align 4
  %14 = alloca i32, align 4
  %15 = alloca i32, align 4
  store ptr %1, ptr %3, align 8, !tbaa !20
  call void @llvm.lifetime.start.p0(i64 8, ptr %4) #7
  %16 = load ptr, ptr %3, align 8, !tbaa !20
  %17 = call noalias ptr @fopen(ptr noundef %16, ptr noundef @.str.43)
  store ptr %17, ptr %4, align 8, !tbaa !51
  call void @llvm.lifetime.start.p0(i64 4, ptr %5) #7
  %18 = load ptr, ptr %4, align 8, !tbaa !51
  %19 = icmp ne ptr %18, null
  %20 = zext i1 %19 to i32
  store i32 %20, ptr %5, align 4, !tbaa !4
  %21 = load i32, ptr %5, align 4, !tbaa !4
  %22 = load ptr, ptr %3, align 8, !tbaa !20
  call void @validateFileOpened(i32 noundef %21, ptr noundef %22, ptr noundef @__func__.createPauliHamilFromFile)
  call void @llvm.lifetime.start.p0(i64 4, ptr %6) #7
  store i32 -1, ptr %6, align 4, !tbaa !4
  call void @llvm.lifetime.start.p0(i64 1, ptr %7) #7
  %23 = load ptr, ptr %4, align 8, !tbaa !51
  %24 = call i32 @getc(ptr noundef %23)
  %25 = trunc i32 %24 to i8
  store i8 %25, ptr %7, align 1, !tbaa !53
  call void @llvm.lifetime.start.p0(i64 1, ptr %8) #7
  store i8 48, ptr %8, align 1, !tbaa !53
  br label %26

26:                                               ; preds = %47, %2
  %27 = load i8, ptr %7, align 1, !tbaa !53
  %28 = sext i8 %27 to i32
  %29 = icmp ne i32 %28, 10
  br i1 %29, label %30, label %34

30:                                               ; preds = %26
  %31 = load i8, ptr %7, align 1, !tbaa !53
  %32 = sext i8 %31 to i32
  %33 = icmp ne i32 %32, -1
  br label %34

34:                                               ; preds = %30, %26
  %35 = phi i1 [ false, %26 ], [ %33, %30 ]
  br i1 %35, label %36, label %52

36:                                               ; preds = %34
  %37 = load i8, ptr %7, align 1, !tbaa !53
  %38 = sext i8 %37 to i32
  %39 = icmp eq i32 %38, 32
  br i1 %39, label %40, label %47

40:                                               ; preds = %36
  %41 = load i8, ptr %8, align 1, !tbaa !53
  %42 = sext i8 %41 to i32
  %43 = icmp ne i32 %42, 32
  br i1 %43, label %44, label %47

44:                                               ; preds = %40
  %45 = load i32, ptr %6, align 4, !tbaa !4
  %46 = add nsw i32 %45, 1
  store i32 %46, ptr %6, align 4, !tbaa !4
  br label %47

47:                                               ; preds = %44, %40, %36
  %48 = load i8, ptr %7, align 1, !tbaa !53
  store i8 %48, ptr %8, align 1, !tbaa !53
  %49 = load ptr, ptr %4, align 8, !tbaa !51
  %50 = call i32 @getc(ptr noundef %49)
  %51 = trunc i32 %50 to i8
  store i8 %51, ptr %7, align 1, !tbaa !53
  br label %26

52:                                               ; preds = %34
  %53 = load i8, ptr %8, align 1, !tbaa !53
  %54 = sext i8 %53 to i32
  %55 = icmp ne i32 %54, 32
  br i1 %55, label %56, label %59

56:                                               ; preds = %52
  %57 = load i32, ptr %6, align 4, !tbaa !4
  %58 = add nsw i32 %57, 1
  store i32 %58, ptr %6, align 4, !tbaa !4
  br label %59

59:                                               ; preds = %56, %52
  call void @llvm.lifetime.start.p0(i64 4, ptr %9) #7
  store i32 0, ptr %9, align 4, !tbaa !4
  store i8 10, ptr %8, align 1, !tbaa !53
  %60 = load ptr, ptr %4, align 8, !tbaa !51
  call void @rewind(ptr noundef %60)
  br label %61

61:                                               ; preds = %78, %59
  %62 = load ptr, ptr %4, align 8, !tbaa !51
  %63 = call i32 @getc(ptr noundef %62)
  %64 = trunc i32 %63 to i8
  store i8 %64, ptr %7, align 1, !tbaa !53
  %65 = sext i8 %64 to i32
  %66 = icmp ne i32 %65, -1
  br i1 %66, label %67, label %80

67:                                               ; preds = %61
  %68 = load i8, ptr %7, align 1, !tbaa !53
  %69 = sext i8 %68 to i32
  %70 = icmp eq i32 %69, 10
  br i1 %70, label %71, label %78

71:                                               ; preds = %67
  %72 = load i8, ptr %8, align 1, !tbaa !53
  %73 = sext i8 %72 to i32
  %74 = icmp ne i32 %73, 10
  br i1 %74, label %75, label %78

75:                                               ; preds = %71
  %76 = load i32, ptr %9, align 4, !tbaa !4
  %77 = add nsw i32 %76, 1
  store i32 %77, ptr %9, align 4, !tbaa !4
  br label %78

78:                                               ; preds = %75, %71, %67
  %79 = load i8, ptr %7, align 1, !tbaa !53
  store i8 %79, ptr %8, align 1, !tbaa !53
  br label %61

80:                                               ; preds = %61
  %81 = load i8, ptr %8, align 1, !tbaa !53
  %82 = sext i8 %81 to i32
  %83 = icmp ne i32 %82, 10
  br i1 %83, label %84, label %87

84:                                               ; preds = %80
  %85 = load i32, ptr %9, align 4, !tbaa !4
  %86 = add nsw i32 %85, 1
  store i32 %86, ptr %9, align 4, !tbaa !4
  br label %87

87:                                               ; preds = %84, %80
  %88 = load i32, ptr %6, align 4, !tbaa !4
  %89 = load i32, ptr %9, align 4, !tbaa !4
  %90 = load ptr, ptr %4, align 8, !tbaa !51
  %91 = load ptr, ptr %3, align 8, !tbaa !20
  call void @validateHamilFileParams(i32 noundef %88, i32 noundef %89, ptr noundef %90, ptr noundef %91, ptr noundef @__func__.createPauliHamilFromFile)
  %92 = load i32, ptr %6, align 4, !tbaa !4
  %93 = load i32, ptr %9, align 4, !tbaa !4
  call void @createPauliHamil(ptr dead_on_unwind writable sret(%struct.PauliHamil) align 8 %0, i32 noundef %92, i32 noundef %93)
  call void @llvm.lifetime.start.p0(i64 50, ptr %10) #7
  %94 = getelementptr inbounds [50 x i8], ptr %10, i64 0, i64 0
  %95 = call ptr @strcpy(ptr noundef %94, ptr noundef @.str.44) #7
  %96 = getelementptr inbounds [50 x i8], ptr %10, i64 0, i64 0
  %97 = call ptr @strcat(ptr noundef %96, ptr noundef @.str.45) #7
  %98 = load ptr, ptr %4, align 8, !tbaa !51
  call void @rewind(ptr noundef %98)
  call void @llvm.lifetime.start.p0(i64 4, ptr %11) #7
  store i32 0, ptr %11, align 4, !tbaa !4
  br label %99

99:                                               ; preds = %154, %87
  %100 = load i32, ptr %11, align 4, !tbaa !4
  %101 = load i32, ptr %9, align 4, !tbaa !4
  %102 = icmp slt i32 %100, %101
  br i1 %102, label %104, label %103

103:                                              ; preds = %99
  store i32 6, ptr %12, align 4
  call void @llvm.lifetime.end.p0(i64 4, ptr %11) #7
  br label %157

104:                                              ; preds = %99
  %105 = load ptr, ptr %4, align 8, !tbaa !51
  %106 = getelementptr inbounds [50 x i8], ptr %10, i64 0, i64 0
  %107 = getelementptr inbounds nuw %struct.PauliHamil, ptr %0, i32 0, i32 1
  %108 = load ptr, ptr %107, align 8, !tbaa !37
  %109 = load i32, ptr %11, align 4, !tbaa !4
  %110 = sext i32 %109 to i64
  %111 = getelementptr inbounds double, ptr %108, i64 %110
  %112 = call i32 (ptr, ptr, ...) @__isoc99_fscanf(ptr noundef %105, ptr noundef %106, ptr noundef %111)
  %113 = icmp eq i32 %112, 1
  %114 = zext i1 %113 to i32
  store i32 %114, ptr %5, align 4, !tbaa !4
  %115 = load i32, ptr %5, align 4, !tbaa !4
  %116 = load ptr, ptr %4, align 8, !tbaa !51
  %117 = load ptr, ptr %3, align 8, !tbaa !20
  call void @validateHamilFileCoeffParsed(i32 noundef %115, ptr noundef byval(%struct.PauliHamil) align 8 %0, ptr noundef %116, ptr noundef %117, ptr noundef @__func__.createPauliHamilFromFile)
  call void @llvm.lifetime.start.p0(i64 4, ptr %13) #7
  store i32 0, ptr %13, align 4, !tbaa !4
  br label %118

118:                                              ; preds = %150, %104
  %119 = load i32, ptr %13, align 4, !tbaa !4
  %120 = load i32, ptr %6, align 4, !tbaa !4
  %121 = icmp slt i32 %119, %120
  br i1 %121, label %123, label %122

122:                                              ; preds = %118
  store i32 9, ptr %12, align 4
  call void @llvm.lifetime.end.p0(i64 4, ptr %13) #7
  br label %153

123:                                              ; preds = %118
  call void @llvm.lifetime.start.p0(i64 4, ptr %14) #7
  %124 = load i32, ptr %11, align 4, !tbaa !4
  %125 = load i32, ptr %6, align 4, !tbaa !4
  %126 = mul nsw i32 %124, %125
  %127 = load i32, ptr %13, align 4, !tbaa !4
  %128 = add nsw i32 %126, %127
  store i32 %128, ptr %14, align 4, !tbaa !4
  call void @llvm.lifetime.start.p0(i64 4, ptr %15) #7
  %129 = load ptr, ptr %4, align 8, !tbaa !51
  %130 = call i32 (ptr, ptr, ...) @__isoc99_fscanf(ptr noundef %129, ptr noundef @.str.46, ptr noundef %15)
  %131 = icmp eq i32 %130, 1
  %132 = zext i1 %131 to i32
  store i32 %132, ptr %5, align 4, !tbaa !4
  %133 = load i32, ptr %15, align 4, !tbaa !4
  %134 = getelementptr inbounds nuw %struct.PauliHamil, ptr %0, i32 0, i32 0
  %135 = load ptr, ptr %134, align 8, !tbaa !35
  %136 = load i32, ptr %14, align 4, !tbaa !4
  %137 = sext i32 %136 to i64
  %138 = getelementptr inbounds i32, ptr %135, i64 %137
  store i32 %133, ptr %138, align 4, !tbaa !4
  %139 = load i32, ptr %5, align 4, !tbaa !4
  %140 = load ptr, ptr %4, align 8, !tbaa !51
  %141 = load ptr, ptr %3, align 8, !tbaa !20
  call void @validateHamilFilePauliParsed(i32 noundef %139, ptr noundef byval(%struct.PauliHamil) align 8 %0, ptr noundef %140, ptr noundef %141, ptr noundef @__func__.createPauliHamilFromFile)
  %142 = getelementptr inbounds nuw %struct.PauliHamil, ptr %0, i32 0, i32 0
  %143 = load ptr, ptr %142, align 8, !tbaa !35
  %144 = load i32, ptr %14, align 4, !tbaa !4
  %145 = sext i32 %144 to i64
  %146 = getelementptr inbounds i32, ptr %143, i64 %145
  %147 = load i32, ptr %146, align 4, !tbaa !4
  %148 = load ptr, ptr %4, align 8, !tbaa !51
  %149 = load ptr, ptr %3, align 8, !tbaa !20
  call void @validateHamilFilePauliCode(i32 noundef %147, ptr noundef byval(%struct.PauliHamil) align 8 %0, ptr noundef %148, ptr noundef %149, ptr noundef @__func__.createPauliHamilFromFile)
  call void @llvm.lifetime.end.p0(i64 4, ptr %15) #7
  call void @llvm.lifetime.end.p0(i64 4, ptr %14) #7
  br label %150

150:                                              ; preds = %123
  %151 = load i32, ptr %13, align 4, !tbaa !4
  %152 = add nsw i32 %151, 1
  store i32 %152, ptr %13, align 4, !tbaa !4
  br label %118

153:                                              ; preds = %122
  br label %154

154:                                              ; preds = %153
  %155 = load i32, ptr %11, align 4, !tbaa !4
  %156 = add nsw i32 %155, 1
  store i32 %156, ptr %11, align 4, !tbaa !4
  br label %99

157:                                              ; preds = %103
  %158 = load ptr, ptr %4, align 8, !tbaa !51
  %159 = call i32 @fclose(ptr noundef %158)
  store i32 1, ptr %12, align 4
  call void @llvm.lifetime.end.p0(i64 50, ptr %10) #7
  call void @llvm.lifetime.end.p0(i64 4, ptr %9) #7
  call void @llvm.lifetime.end.p0(i64 1, ptr %8) #7
  call void @llvm.lifetime.end.p0(i64 1, ptr %7) #7
  call void @llvm.lifetime.end.p0(i64 4, ptr %6) #7
  call void @llvm.lifetime.end.p0(i64 4, ptr %5) #7
  call void @llvm.lifetime.end.p0(i64 8, ptr %4) #7
  ret void
}