; Function Attrs: nounwind uwtable
define void @createPauliHamilFromFile(ptr dead_on_unwind noalias writable sret(%struct.PauliHamil) align 8 captures(none) %0, ptr noundef %1) local_unnamed_addr #0 {
  %3 = alloca [50 x i8], align 16
  %4 = alloca i32, align 4
  %5 = tail call noalias ptr @fopen(ptr noundef %1, ptr noundef nonnull @.str.43)
  %6 = icmp ne ptr %5, null
  %7 = zext i1 %6 to i32
  tail call void @validateFileOpened(i32 noundef %7, ptr noundef %1, ptr noundef nonnull @__func__.createPauliHamilFromFile) #17
  br label %8

8:                                                ; preds = %10, %2
  %.061 = phi i32 [ -1, %2 ], [ %spec.select, %10 ]
  %.058 = phi i8 [ 48, %2 ], [ %.060, %10 ]
  %9 = tail call i32 @getc(ptr noundef %5)
  %sext = shl i32 %9, 24
  switch i32 %sext, label %10 [
    i32 -16777216, label %14
    i32 167772160, label %14
  ]

10:                                               ; preds = %8
  %.060 = trunc i32 %9 to i8
  %11 = icmp eq i32 %sext, 536870912
  %12 = icmp ne i8 %.058, 32
  %or.cond = and i1 %11, %12
  %13 = zext i1 %or.cond to i32
  %spec.select = add i32 %.061, %13
  br label %8

14:                                               ; preds = %8, %8
  %.not = icmp ne i8 %.058, 32
  %15 = zext i1 %.not to i32
  %spec.select69 = add i32 %.061, %15
  tail call void @rewind(ptr noundef %5)
  %16 = tail call i32 @getc(ptr noundef %5)
  %sext6672 = shl i32 %16, 24
  %.not6773 = icmp eq i32 %sext6672, -16777216
  br i1 %.not6773, label %._crit_edge, label %.lr.ph

.lr.ph:                                           ; preds = %14, %.lr.ph
  %sext6676 = phi i32 [ %sext66, %.lr.ph ], [ %sext6672, %14 ]
  %17 = phi i32 [ %22, %.lr.ph ], [ %16, %14 ]
  %.05775 = phi i32 [ %spec.select70, %.lr.ph ], [ 0, %14 ]
  %.15974 = phi i8 [ %18, %.lr.ph ], [ 10, %14 ]
  %18 = trunc i32 %17 to i8
  %19 = icmp eq i32 %sext6676, 167772160
  %20 = icmp ne i8 %.15974, 10
  %or.cond5 = and i1 %20, %19
  %21 = zext i1 %or.cond5 to i32
  %spec.select70 = add nuw nsw i32 %.05775, %21
  %22 = tail call i32 @getc(ptr noundef %5)
  %sext66 = shl i32 %22, 24
  %.not67 = icmp eq i32 %sext66, -16777216
  br i1 %.not67, label %._crit_edge.loopexit, label %.lr.ph

._crit_edge.loopexit:                             ; preds = %.lr.ph
  %23 = icmp ne i8 %18, 10
  %24 = zext i1 %23 to i32
  %25 = add nuw nsw i32 %spec.select70, %24
  br label %._crit_edge

._crit_edge:                                      ; preds = %._crit_edge.loopexit, %14
  %spec.select71 = phi i32 [ 0, %14 ], [ %25, %._crit_edge.loopexit ]
  tail call void @validateHamilFileParams(i32 noundef %spec.select69, i32 noundef %spec.select71, ptr noundef %5, ptr noundef %1, ptr noundef nonnull @__func__.createPauliHamilFromFile) #17
  tail call void @llvm.experimental.noalias.scope.decl(metadata !34)
  tail call void @validateHamilParams(i32 noundef %spec.select69, i32 noundef %spec.select71, ptr noundef nonnull @__func__.createPauliHamil) #17, !noalias !34
  %26 = getelementptr inbounds nuw i8, ptr %0, i64 20
  store i32 %spec.select69, ptr %26, align 4, !tbaa !33, !alias.scope !34
  %27 = getelementptr inbounds nuw i8, ptr %0, i64 16
  store i32 %spec.select71, ptr %27, align 8, !tbaa !24, !alias.scope !34
  %28 = zext i32 %spec.select71 to i64
  %29 = shl nuw nsw i64 %28, 3
  %30 = tail call noalias ptr @malloc(i64 noundef %29) #18
  %31 = getelementptr inbounds nuw i8, ptr %0, i64 8
  store ptr %30, ptr %31, align 8, !tbaa !23, !alias.scope !34
  %32 = mul nsw i32 %spec.select71, %spec.select69
  %33 = sext i32 %32 to i64
  %34 = shl nsw i64 %33, 2
  %35 = tail call noalias ptr @malloc(i64 noundef %34) #18
  store ptr %35, ptr %0, align 8, !tbaa !21, !alias.scope !34
  %36 = icmp sgt i32 %32, 0
  br i1 %36, label %.lr.ph.preheader.i, label %createPauliHamil.exit

.lr.ph.preheader.i:                               ; preds = %._crit_edge
  %37 = zext nneg i32 %32 to i64
  %38 = shl nuw nsw i64 %37, 2
  tail call void @llvm.memset.p0.i64(ptr align 4 %35, i8 0, i64 %38, i1 false), !tbaa !20, !noalias !34
  br label %createPauliHamil.exit

createPauliHamil.exit:                            ; preds = %._crit_edge, %.lr.ph.preheader.i
  call void @llvm.lifetime.start.p0(i64 50, ptr nonnull %3) #17
  store i32 6712357, ptr %3, align 16
  %strlen = call i64 @strlen(ptr noundef nonnull dereferenceable(1) %3)
  %endptr = getelementptr inbounds i8, ptr %3, i64 %strlen
  store i16 32, ptr %endptr, align 1
  tail call void @rewind(ptr noundef %5)
  %.not85 = icmp eq i32 %spec.select71, 0
  br i1 %.not85, label %._crit_edge84, label %.lr.ph83

.lr.ph83:                                         ; preds = %createPauliHamil.exit
  %39 = icmp sgt i32 %spec.select69, 0
  br i1 %39, label %.lr.ph80.us.preheader, label %.lr.ph83.split

.lr.ph80.us.preheader:                            ; preds = %.lr.ph83
  %40 = zext nneg i32 %spec.select69 to i64
  br label %.lr.ph80.us

.lr.ph80.us:                                      ; preds = %.lr.ph80.us.preheader, %._crit_edge81.us
  %indvars.iv93 = phi i64 [ 0, %.lr.ph80.us.preheader ], [ %indvars.iv.next94, %._crit_edge81.us ]
  %41 = getelementptr inbounds nuw double, ptr %30, i64 %indvars.iv93
  %42 = call i32 (ptr, ptr, ...) @__isoc99_fscanf(ptr noundef %5, ptr noundef nonnull %3, ptr noundef %41) #17
  %43 = icmp eq i32 %42, 1
  %44 = zext i1 %43 to i32
  call void @validateHamilFileCoeffParsed(i32 noundef %44, ptr noundef nonnull byval(%struct.PauliHamil) align 8 %0, ptr noundef %5, ptr noundef %1, ptr noundef nonnull @__func__.createPauliHamilFromFile) #17
  %45 = mul nuw nsw i64 %indvars.iv93, %40
  %invariant.gep = getelementptr inbounds nuw i32, ptr %35, i64 %45
  br label %46

46:                                               ; preds = %.lr.ph80.us, %46
  %indvars.iv88 = phi i64 [ 0, %.lr.ph80.us ], [ %indvars.iv.next89, %46 ]
  call void @llvm.lifetime.start.p0(i64 4, ptr nonnull %4) #17
  %47 = call i32 (ptr, ptr, ...) @__isoc99_fscanf(ptr noundef %5, ptr noundef nonnull @.str.46, ptr noundef nonnull %4) #17
  %48 = icmp eq i32 %47, 1
  %49 = zext i1 %48 to i32
  %50 = load i32, ptr %4, align 4, !tbaa !20
  %gep = getelementptr inbounds nuw i32, ptr %invariant.gep, i64 %indvars.iv88
  store i32 %50, ptr %gep, align 4, !tbaa !20
  call void @validateHamilFilePauliParsed(i32 noundef %49, ptr noundef nonnull byval(%struct.PauliHamil) align 8 %0, ptr noundef %5, ptr noundef %1, ptr noundef nonnull @__func__.createPauliHamilFromFile) #17
  %51 = load i32, ptr %gep, align 4, !tbaa !20
  call void @validateHamilFilePauliCode(i32 noundef %51, ptr noundef nonnull byval(%struct.PauliHamil) align 8 %0, ptr noundef %5, ptr noundef %1, ptr noundef nonnull @__func__.createPauliHamilFromFile) #17
  call void @llvm.lifetime.end.p0(i64 4, ptr nonnull %4) #17
  %indvars.iv.next89 = add nuw nsw i64 %indvars.iv88, 1
  %exitcond92.not = icmp eq i64 %indvars.iv.next89, %40
  br i1 %exitcond92.not, label %._crit_edge81.us, label %46

._crit_edge81.us:                                 ; preds = %46
  %indvars.iv.next94 = add nuw nsw i64 %indvars.iv93, 1
  %exitcond97.not = icmp eq i64 %indvars.iv.next94, %28
  br i1 %exitcond97.not, label %._crit_edge84, label %.lr.ph80.us

._crit_edge84:                                    ; preds = %.lr.ph83.split, %._crit_edge81.us, %createPauliHamil.exit
  %52 = call i32 @fclose(ptr noundef %5)
  call void @llvm.lifetime.end.p0(i64 50, ptr nonnull %3) #17
  ret void

.lr.ph83.split:                                   ; preds = %.lr.ph83, %.lr.ph83.split
  %indvars.iv = phi i64 [ %indvars.iv.next, %.lr.ph83.split ], [ 0, %.lr.ph83 ]
  %53 = getelementptr inbounds nuw double, ptr %30, i64 %indvars.iv
  %54 = call i32 (ptr, ptr, ...) @__isoc99_fscanf(ptr noundef %5, ptr noundef nonnull %3, ptr noundef %53) #17
  %55 = icmp eq i32 %54, 1
  %56 = zext i1 %55 to i32
  call void @validateHamilFileCoeffParsed(i32 noundef %56, ptr noundef nonnull byval(%struct.PauliHamil) align 8 %0, ptr noundef %5, ptr noundef %1, ptr noundef nonnull @__func__.createPauliHamilFromFile) #17
  %indvars.iv.next = add nuw nsw i64 %indvars.iv, 1
  %exitcond.not = icmp eq i64 %indvars.iv.next, %28
  br i1 %exitcond.not, label %._crit_edge84, label %.lr.ph83.split
}